target datalayout = "e-m:e-p270:32:32-p271:32:32-p272:64:64-i64:64-i128:128-f80:128-n8:16:32:64-S128"
target triple = "x86_64-unknown-linux-gnu"

%"class.FLAC::Decoder::Stream" = type { ptr, ptr }

; Function Attrs: mustprogress sspstrong uwtable
define void @_ZN4FLAC7Decoder6StreamC2Ev(ptr noundef nonnull align 8 dereferenceable(16) %this) unnamed_addr #0 align 2 {
entry:
  %this.addr = alloca ptr, align 8
  store ptr %this, ptr %this.addr, align 8
  %this1 = load ptr, ptr %this.addr, align 8
  store ptr getelementptr inbounds ({ [39 x ptr] }, ptr @_ZTVN4FLAC7Decoder6StreamE, i32 0, i32 0, i32 2), ptr %this1, align 8
  %decoder_ = getelementptr inbounds %"class.FLAC::Decoder::Stream", ptr %this1, i32 0, i32 1
  %call = call ptr @FLAC__stream_decoder_new()
  store ptr %call, ptr %decoder_, align 8
  ret void
}

; Function Attrs: mustprogress sspstrong uwtable
define void @_ZN4FLAC7Decoder4FileC2Ev(ptr noundef nonnull align 8 dereferenceable(16) %this) unnamed_addr #0 align 2 {
entry:
  %this.addr = alloca ptr, align 8
  store ptr %this, ptr %this.addr, align 8
  %this1 = load ptr, ptr %this.addr, align 8
  call void @_ZN4FLAC7Decoder6StreamC2Ev(ptr noundef nonnull align 8 dereferenceable(16) %this1)
  store ptr getelementptr inbounds ({ [45 x ptr] }, ptr @_ZTVN4FLAC7Decoder4FileE, i32 0, i32 0, i32 2), ptr %this1, align 8
  ret void
}