; Function Attrs: mustprogress sspstrong uwtable
define void @_ZN4FLAC7Decoder4FileC2Ev(ptr nocapture noundef nonnull writeonly align 8 dereferenceable(16) %this) unnamed_addr #0 align 2 {
entry:
  store ptr getelementptr inbounds ({ [39 x ptr] }, ptr @_ZTVN4FLAC7Decoder6StreamE, i64 0, i32 0, i64 2), ptr %this, align 8
  %decoder_.i = getelementptr inbounds i8, ptr %this, i64 8
  %call.i = tail call ptr @FLAC__stream_decoder_new()
  store ptr %call.i, ptr %decoder_.i, align 8
  store ptr getelementptr inbounds ({ [45 x ptr] }, ptr @_ZTVN4FLAC7Decoder4FileE, i64 0, i32 0, i64 2), ptr %this, align 8
  ret void
}